; Function Attrs: mustprogress uwtable
define noundef ptr @_Z19gmx_conect_generatePK10t_topology(ptr noundef readonly captures(none) %0) local_unnamed_addr #1 {
  %2 = tail call noundef ptr @_Z11save_callocPKcS0_imm(ptr noundef nonnull @.str.40, ptr noundef nonnull @.str.29, i32 noundef 839, i64 noundef 1, i64 noundef 16)
  %3 = getelementptr inbounds nuw i8, ptr %0, i64 56
  %4 = getelementptr inbounds nuw i8, ptr %2, i64 8
  br label %5

5:                                                ; preds = %1, %_ZL11IS_CHEMBONDi.exit.thread
  %indvars.iv = phi i64 [ 0, %1 ], [ %indvars.iv.next, %_ZL11IS_CHEMBONDi.exit.thread ]
  %6 = getelementptr inbounds nuw [95 x %struct.t_interaction_function], ptr @interaction_function, i64 0, i64 %indvars.iv
  %7 = getelementptr inbounds nuw i8, ptr %6, i64 16
  %8 = load i32, ptr %7, align 16, !tbaa !135
  %9 = icmp eq i32 %8, 2
  br i1 %9, label %_ZL11IS_CHEMBONDi.exit, label %_ZL11IS_CHEMBONDi.exit.thread

_ZL11IS_CHEMBONDi.exit:                           ; preds = %5
  %10 = getelementptr inbounds nuw i8, ptr %6, i64 28
  %11 = load i32, ptr %10, align 4, !tbaa !137
  %12 = and i32 %11, 8
  %.not = icmp eq i32 %12, 0
  br i1 %.not, label %_ZL11IS_CHEMBONDi.exit.thread, label %.preheader

.preheader:                                       ; preds = %_ZL11IS_CHEMBONDi.exit
  %13 = getelementptr inbounds nuw [95 x %struct.t_ilist], ptr %3, i64 0, i64 %indvars.iv
  %14 = load i32, ptr %13, align 8, !tbaa !138
  %15 = icmp sgt i32 %14, 0
  br i1 %15, label %.lr.ph, label %_ZL11IS_CHEMBONDi.exit.thread

.lr.ph:                                           ; preds = %.preheader
  %16 = getelementptr inbounds nuw i8, ptr %13, i64 8
  %17 = getelementptr inbounds nuw [95 x %struct.t_interaction_function], ptr @interaction_function, i64 0, i64 %indvars.iv, i32 2
  %.pre = load i32, ptr %2, align 8, !tbaa !60
  %.pre19 = load ptr, ptr %4, align 8, !tbaa !78
  br label %18

18:                                               ; preds = %.lr.ph, %_Z14gmx_conect_addP12gmx_conect_tii.exit
  %19 = phi i32 [ %14, %.lr.ph ], [ %49, %_Z14gmx_conect_addP12gmx_conect_tii.exit ]
  %20 = phi i32 [ 2, %.lr.ph ], [ %50, %_Z14gmx_conect_addP12gmx_conect_tii.exit ]
  %21 = phi ptr [ %.pre19, %.lr.ph ], [ %51, %_Z14gmx_conect_addP12gmx_conect_tii.exit ]
  %22 = phi i32 [ %.pre, %.lr.ph ], [ %52, %_Z14gmx_conect_addP12gmx_conect_tii.exit ]
  %.01516 = phi i32 [ 0, %.lr.ph ], [ %54, %_Z14gmx_conect_addP12gmx_conect_tii.exit ]
  %23 = load ptr, ptr %16, align 8, !tbaa !141
  %24 = sext i32 %.01516 to i64
  %25 = getelementptr i32, ptr %23, i64 %24
  %26 = getelementptr i8, ptr %25, i64 4
  %27 = load i32, ptr %26, align 4, !tbaa !11
  %28 = getelementptr i8, ptr %25, i64 8
  %29 = load i32, ptr %28, align 4, !tbaa !11
  %30 = icmp sgt i32 %22, 0
  br i1 %30, label %.lr.ph.i.i, label %_Z16gmx_conect_existP12gmx_conect_tii.exit.i

.lr.ph.i.i:                                       ; preds = %18
  %wide.trip.count.i.i = zext nneg i32 %22 to i64
  br label %32

31:                                               ; preds = %._crit_edge23.i.i
  %indvars.iv.next.i.i = add nuw nsw i64 %indvars.iv.i.i, 1
  %exitcond.not.i.i = icmp eq i64 %indvars.iv.next.i.i, %wide.trip.count.i.i
  br i1 %exitcond.not.i.i, label %_Z16gmx_conect_existP12gmx_conect_tii.exit.i, label %32, !llvm.loop !77

32:                                               ; preds = %31, %.lr.ph.i.i
  %indvars.iv.i.i = phi i64 [ 0, %.lr.ph.i.i ], [ %indvars.iv.next.i.i, %31 ]
  %33 = getelementptr inbounds nuw %struct.gmx_conection_t, ptr %21, i64 %indvars.iv.i.i
  %34 = load i32, ptr %33, align 4, !tbaa !63
  %35 = icmp eq i32 %34, %27
  %36 = getelementptr inbounds nuw i8, ptr %33, i64 4
  %37 = load i32, ptr %36, align 4, !tbaa !65
  %38 = icmp eq i32 %37, %29
  %or.cond24.i.i = select i1 %35, i1 %38, i1 false
  br i1 %or.cond24.i.i, label %_Z14gmx_conect_addP12gmx_conect_tii.exit, label %._crit_edge23.i.i

._crit_edge23.i.i:                                ; preds = %32
  %39 = icmp eq i32 %37, %27
  %40 = icmp eq i32 %34, %29
  %or.cond.i.i = and i1 %40, %39
  br i1 %or.cond.i.i, label %_Z14gmx_conect_addP12gmx_conect_tii.exit, label %31

_Z16gmx_conect_existP12gmx_conect_tii.exit.i:     ; preds = %31, %18
  %41 = add nsw i32 %22, 1
  store i32 %41, ptr %2, align 8, !tbaa !60
  %42 = sext i32 %41 to i64
  %43 = tail call noundef ptr @_Z12save_reallocPKcS0_iPvmm(ptr noundef nonnull @.str.41, ptr noundef nonnull @.str.29, i32 noundef 873, ptr noundef %21, i64 noundef range(i64 -2147483647, 2147483648) %42, i64 noundef 8)
  store ptr %43, ptr %4, align 8, !tbaa !78
  %44 = load i32, ptr %2, align 8, !tbaa !60
  %45 = sext i32 %44 to i64
  %46 = getelementptr %struct.gmx_conection_t, ptr %43, i64 %45
  %47 = getelementptr i8, ptr %46, i64 -8
  store i32 %27, ptr %47, align 4, !tbaa !63
  %48 = getelementptr i8, ptr %46, i64 -4
  store i32 %29, ptr %48, align 4, !tbaa !65
  %.pre20 = load i32, ptr %17, align 16, !tbaa !135
  %.pre21 = load i32, ptr %13, align 8, !tbaa !138
  br label %_Z14gmx_conect_addP12gmx_conect_tii.exit

_Z14gmx_conect_addP12gmx_conect_tii.exit:         ; preds = %32, %._crit_edge23.i.i, %_Z16gmx_conect_existP12gmx_conect_tii.exit.i
  %49 = phi i32 [ %.pre21, %_Z16gmx_conect_existP12gmx_conect_tii.exit.i ], [ %19, %._crit_edge23.i.i ], [ %19, %32 ]
  %50 = phi i32 [ %.pre20, %_Z16gmx_conect_existP12gmx_conect_tii.exit.i ], [ %20, %._crit_edge23.i.i ], [ %20, %32 ]
  %51 = phi ptr [ %43, %_Z16gmx_conect_existP12gmx_conect_tii.exit.i ], [ %21, %._crit_edge23.i.i ], [ %21, %32 ]
  %52 = phi i32 [ %44, %_Z16gmx_conect_existP12gmx_conect_tii.exit.i ], [ %22, %._crit_edge23.i.i ], [ %22, %32 ]
  %53 = add i32 %.01516, 1
  %54 = add i32 %53, %50
  %55 = icmp slt i32 %54, %49
  br i1 %55, label %18, label %_ZL11IS_CHEMBONDi.exit.thread, !llvm.loop !142

_ZL11IS_CHEMBONDi.exit.thread:                    ; preds = %_Z14gmx_conect_addP12gmx_conect_tii.exit, %.preheader, %5, %_ZL11IS_CHEMBONDi.exit
  %indvars.iv.next = add nuw nsw i64 %indvars.iv, 1
  %exitcond.not = icmp eq i64 %indvars.iv.next, 95
  br i1 %exitcond.not, label %56, label %5, !llvm.loop !143

56:                                               ; preds = %_ZL11IS_CHEMBONDi.exit.thread
  ret ptr %2
}